target datalayout = "e-m:e-p270:32:32-p271:32:32-p272:64:64-i64:64-i128:128-f80:128-n8:16:32:64-S128"
target triple = "x86_64-pc-linux-gnu"

%struct.settings = type { i64, i32, i32, i32, ptr, i32, i32, i32, ptr, ptr, i32, double, i32, i32, i32, i8, i32, i32, i8, i32, i32, i32, i32, i32, i32, i8, i8, i8, i8, i8, i8, i8, i32, i32, double, double, i32, i32, i8, i32, i8, i8, ptr, i32, i32, i32, i32, double, double, i32, i8, i32, i32, i32, i32, i32, i8, i8, i8, ptr, i32, i32, i32, i32, i32, i32, i32, i32, i32, i32, double, i8, i32, i32, ptr, i32 }
%struct.storage_settings = type { ptr, %struct.extstore_conf }
%struct.extstore_conf = type { i32, i32, i32, i32, i32, i32, i32, i32 }

@settings = external global %struct.settings, align 8

; Function Attrs: nounwind uwtable
define dso_local ptr @storage_init_config(ptr noundef %0) #0 {
  %2 = alloca ptr, align 8
  %3 = alloca ptr, align 8
  store ptr %0, ptr %2, align 8, !tbaa !197
  call void @llvm.lifetime.start.p0(i64 8, ptr %3) #13
  %4 = call noalias ptr @calloc(i64 noundef 1, i64 noundef 40) #14
  store ptr %4, ptr %3, align 8, !tbaa !199
  %5 = load ptr, ptr %2, align 8, !tbaa !197
  %6 = getelementptr inbounds nuw %struct.settings, ptr %5, i32 0, i32 62
  store i32 512, ptr %6, align 8, !tbaa !163
  %7 = load ptr, ptr %2, align 8, !tbaa !197
  %8 = getelementptr inbounds nuw %struct.settings, ptr %7, i32 0, i32 63
  store i32 -1, ptr %8, align 4, !tbaa !166
  %9 = load ptr, ptr %2, align 8, !tbaa !197
  %10 = getelementptr inbounds nuw %struct.settings, ptr %9, i32 0, i32 64
  store i32 0, ptr %10, align 8, !tbaa !201
  %11 = load ptr, ptr %2, align 8, !tbaa !197
  %12 = getelementptr inbounds nuw %struct.settings, ptr %11, i32 0, i32 65
  store i32 2000, ptr %12, align 4, !tbaa !202
  %13 = load ptr, ptr %2, align 8, !tbaa !197
  %14 = getelementptr inbounds nuw %struct.settings, ptr %13, i32 0, i32 70
  store double 8.000000e-01, ptr %14, align 8, !tbaa !203
  %15 = load ptr, ptr %2, align 8, !tbaa !197
  %16 = getelementptr inbounds nuw %struct.settings, ptr %15, i32 0, i32 71
  store i8 0, ptr %16, align 8, !tbaa !204
  %17 = load ptr, ptr %2, align 8, !tbaa !197
  %18 = getelementptr inbounds nuw %struct.settings, ptr %17, i32 0, i32 66
  store i32 4194304, ptr %18, align 8, !tbaa !170
  %19 = load ptr, ptr %2, align 8, !tbaa !197
  %20 = getelementptr inbounds nuw %struct.settings, ptr %19, i32 0, i32 67
  store i32 0, ptr %20, align 4, !tbaa !205
  %21 = load ptr, ptr %2, align 8, !tbaa !197
  %22 = getelementptr inbounds nuw %struct.settings, ptr %21, i32 0, i32 68
  store i32 0, ptr %22, align 8, !tbaa !206
  %23 = load ptr, ptr %2, align 8, !tbaa !197
  %24 = getelementptr inbounds nuw %struct.settings, ptr %23, i32 0, i32 69
  store i32 1000000, ptr %24, align 4, !tbaa !165
  %25 = load ptr, ptr %2, align 8, !tbaa !197
  %26 = getelementptr inbounds nuw %struct.settings, ptr %25, i32 0, i32 35
  store double 1.000000e-02, ptr %26, align 8, !tbaa !207
  %27 = load ptr, ptr %2, align 8, !tbaa !197
  %28 = getelementptr inbounds nuw %struct.settings, ptr %27, i32 0, i32 61
  store i32 67108864, ptr %28, align 4, !tbaa !208
  %29 = load ptr, ptr %2, align 8, !tbaa !197
  %30 = getelementptr inbounds nuw %struct.settings, ptr %29, i32 0, i32 60
  store i32 1, ptr %30, align 8, !tbaa !209
  %31 = load i32, ptr getelementptr inbounds nuw (%struct.settings, ptr @settings, i32 0, i32 61), align 4, !tbaa !208
  %32 = load ptr, ptr %3, align 8, !tbaa !199
  %33 = getelementptr inbounds nuw %struct.storage_settings, ptr %32, i32 0, i32 1
  %34 = getelementptr inbounds nuw %struct.extstore_conf, ptr %33, i32 0, i32 0
  store i32 %31, ptr %34, align 8, !tbaa !210
  %35 = load i32, ptr getelementptr inbounds nuw (%struct.settings, ptr @settings, i32 0, i32 66), align 8, !tbaa !170
  %36 = load ptr, ptr %3, align 8, !tbaa !199
  %37 = getelementptr inbounds nuw %struct.storage_settings, ptr %36, i32 0, i32 1
  %38 = getelementptr inbounds nuw %struct.extstore_conf, ptr %37, i32 0, i32 4
  store i32 %35, ptr %38, align 8, !tbaa !213
  %39 = load i32, ptr getelementptr inbounds nuw (%struct.settings, ptr @settings, i32 0, i32 60), align 8, !tbaa !209
  %40 = load ptr, ptr %3, align 8, !tbaa !199
  %41 = getelementptr inbounds nuw %struct.storage_settings, ptr %40, i32 0, i32 1
  %42 = getelementptr inbounds nuw %struct.extstore_conf, ptr %41, i32 0, i32 6
  store i32 %39, ptr %42, align 8, !tbaa !214
  %43 = load ptr, ptr %3, align 8, !tbaa !199
  %44 = getelementptr inbounds nuw %struct.storage_settings, ptr %43, i32 0, i32 1
  %45 = getelementptr inbounds nuw %struct.extstore_conf, ptr %44, i32 0, i32 7
  store i32 1, ptr %45, align 4, !tbaa !215
  %46 = load ptr, ptr %3, align 8, !tbaa !199
  %47 = getelementptr inbounds nuw %struct.storage_settings, ptr %46, i32 0, i32 1
  %48 = getelementptr inbounds nuw %struct.extstore_conf, ptr %47, i32 0, i32 2
  store i32 6, ptr %48, align 8, !tbaa !216
  %49 = load ptr, ptr %3, align 8, !tbaa !199
  %50 = getelementptr inbounds nuw %struct.storage_settings, ptr %49, i32 0, i32 1
  %51 = getelementptr inbounds nuw %struct.extstore_conf, ptr %50, i32 0, i32 2
  %52 = load i32, ptr %51, align 8, !tbaa !216
  %53 = load ptr, ptr %3, align 8, !tbaa !199
  %54 = getelementptr inbounds nuw %struct.storage_settings, ptr %53, i32 0, i32 1
  %55 = getelementptr inbounds nuw %struct.extstore_conf, ptr %54, i32 0, i32 5
  store i32 %52, ptr %55, align 4, !tbaa !217
  %56 = load ptr, ptr %3, align 8, !tbaa !199
  call void @llvm.lifetime.end.p0(i64 8, ptr %3) #13
  ret ptr %56
}