; Function Attrs: mustprogress nofree nounwind willreturn memory(readwrite, argmem: write) uwtable
define dso_local noalias noundef ptr @storage_init_config(ptr noundef writeonly captures(none) initializes((160, 168), (272, 321)) %0) local_unnamed_addr #14 {
  %2 = tail call noalias dereferenceable_or_null(40) ptr @calloc(i64 noundef 1, i64 noundef 40) #22
  %3 = getelementptr inbounds nuw i8, ptr %0, i64 280
  store i32 512, ptr %3, align 8, !tbaa !160
  %4 = getelementptr inbounds nuw i8, ptr %0, i64 284
  store i32 -1, ptr %4, align 4, !tbaa !215
  %5 = getelementptr inbounds nuw i8, ptr %0, i64 288
  store i32 0, ptr %5, align 8, !tbaa !166
  %6 = getelementptr inbounds nuw i8, ptr %0, i64 292
  store i32 2000, ptr %6, align 4, !tbaa !141
  %7 = getelementptr inbounds nuw i8, ptr %0, i64 312
  store double 8.000000e-01, ptr %7, align 8, !tbaa !186
  %8 = getelementptr inbounds nuw i8, ptr %0, i64 320
  store i8 0, ptr %8, align 8, !tbaa !216
  %9 = getelementptr inbounds nuw i8, ptr %0, i64 296
  store i32 4194304, ptr %9, align 8, !tbaa !176
  %10 = getelementptr inbounds nuw i8, ptr %0, i64 300
  store i32 0, ptr %10, align 4, !tbaa !217
  %11 = getelementptr inbounds nuw i8, ptr %0, i64 304
  store i32 0, ptr %11, align 8, !tbaa !218
  %12 = getelementptr inbounds nuw i8, ptr %0, i64 308
  store i32 1000000, ptr %12, align 4, !tbaa !162
  %13 = getelementptr inbounds nuw i8, ptr %0, i64 160
  store double 1.000000e-02, ptr %13, align 8, !tbaa !219
  %14 = getelementptr inbounds nuw i8, ptr %0, i64 276
  store i32 67108864, ptr %14, align 4, !tbaa !220
  %15 = getelementptr inbounds nuw i8, ptr %0, i64 272
  store i32 1, ptr %15, align 8, !tbaa !221
  %16 = load i32, ptr getelementptr inbounds nuw (i8, ptr @settings, i64 276), align 4, !tbaa !220
  %17 = getelementptr inbounds nuw i8, ptr %2, i64 8
  store i32 %16, ptr %17, align 8, !tbaa !222
  %18 = load i32, ptr getelementptr inbounds nuw (i8, ptr @settings, i64 296), align 8, !tbaa !176
  %19 = getelementptr inbounds nuw i8, ptr %2, i64 24
  store i32 %18, ptr %19, align 8, !tbaa !225
  %20 = load i32, ptr getelementptr inbounds nuw (i8, ptr @settings, i64 272), align 8, !tbaa !221
  %21 = getelementptr inbounds nuw i8, ptr %2, i64 32
  store i32 %20, ptr %21, align 8, !tbaa !226
  %22 = getelementptr inbounds nuw i8, ptr %2, i64 36
  store i32 1, ptr %22, align 4, !tbaa !227
  %23 = getelementptr inbounds nuw i8, ptr %2, i64 16
  store i32 6, ptr %23, align 8, !tbaa !228
  %24 = getelementptr inbounds nuw i8, ptr %2, i64 28
  store i32 6, ptr %24, align 4, !tbaa !229
  ret ptr %2
}